; Function Attrs: mustprogress uwtable
define i64 @_ZNK8QuantLib27YoYCapFloorTermPriceSurface22yoyOptionDateFromTenorERKNS_6PeriodE(ptr noundef nonnull align 8 dereferenceable(400) %this, ptr nocapture noundef nonnull readonly align 4 dereferenceable(8) %p) unnamed_addr #3 align 2 {
entry:
  %vtable = load ptr, ptr %this, align 8, !tbaa !14
  %vfn = getelementptr inbounds i8, ptr %vtable, i64 40
  %0 = load ptr, ptr %vfn, align 8
  %call = tail call noundef nonnull align 8 dereferenceable(8) ptr %0(ptr noundef nonnull align 8 dereferenceable(64) %this)
  %1 = load i32, ptr %p, align 4, !tbaa !105
  %units_.i.i = getelementptr inbounds nuw i8, ptr %p, i64 4
  %2 = load i32, ptr %units_.i.i, align 4, !tbaa !106
  %call3.i = tail call i64 @_ZN8QuantLib4Date7advanceERKS0_iNS_8TimeUnitE(ptr noundef nonnull align 8 dereferenceable(8) %call, i32 noundef %1, i32 noundef %2)
  ret i64 %call3.i
}